; Function Attrs: mustprogress uwtable
define internal void @_ZN4Luau7CodeGenL6appendERNSt7__cxx1112basic_stringIcSt11char_traitsIcESaIcEEEPKcz(ptr noundef nonnull align 8 dereferenceable(32) %0, ptr noundef readonly captures(none) %1, ...) unnamed_addr #1 personality ptr @__gxx_personality_v0 {
  %3 = alloca [256 x i8], align 16
  %4 = alloca [1 x %struct.__va_list_tag], align 16
  call void @llvm.lifetime.start.p0(i64 256, ptr nonnull %3) #16
  call void @llvm.lifetime.start.p0(i64 24, ptr nonnull %4) #16
  call void @llvm.va_start.p0(ptr nonnull %4)
  %5 = call i32 @vsnprintf(ptr noundef nonnull %3, i64 noundef 256, ptr noundef %1, ptr noundef nonnull %4) #16
  call void @llvm.va_end.p0(ptr nonnull %4)
  %6 = call noundef i64 @strlen(ptr noundef nonnull dereferenceable(1) %3) #16
  %7 = getelementptr inbounds nuw i8, ptr %0, i64 8
  %8 = load i64, ptr %7, align 8, !tbaa !26
  %9 = sub i64 4611686018427387903, %8
  %10 = icmp ult i64 %9, %6
  br i1 %10, label %11, label %_ZNSt7__cxx1112basic_stringIcSt11char_traitsIcESaIcEE6appendEPKc.exit

11:                                               ; preds = %2
  call void @_ZSt20__throw_length_errorPKc(ptr noundef nonnull @.str.256) #17
  unreachable

_ZNSt7__cxx1112basic_stringIcSt11char_traitsIcESaIcEE6appendEPKc.exit: ; preds = %2
  %12 = call noundef nonnull align 8 dereferenceable(32) ptr @_ZNSt7__cxx1112basic_stringIcSt11char_traitsIcESaIcEE9_M_appendEPKcm(ptr noundef nonnull align 8 dereferenceable(32) %0, ptr noundef nonnull %3, i64 noundef %6)
  call void @llvm.lifetime.end.p0(i64 24, ptr nonnull %4) #16
  call void @llvm.lifetime.end.p0(i64 256, ptr nonnull %3) #16
  ret void
}